; Function Attrs: mustprogress uwtable
define hidden void @_ZN11shared_occsclEP4expr(ptr noundef nonnull align 8 dereferenceable(40) %this, ptr noundef %t) local_unnamed_addr #3 align 2 personality ptr @__gxx_personality_v0 {
entry:
  %visited = alloca %class.shared_occs_mark, align 8
  %m_initial_buffer.i.i.i = getelementptr inbounds i8, ptr %visited, i64 16
  store ptr %m_initial_buffer.i.i.i, ptr %visited, align 8
  %m_pos.i.i.i = getelementptr inbounds i8, ptr %visited, i64 8
  store i32 0, ptr %m_pos.i.i.i, align 8
  %m_capacity.i.i.i = getelementptr inbounds i8, ptr %visited, i64 12
  store i32 16, ptr %m_capacity.i.i.i, align 4
  %m_shared.i = getelementptr inbounds i8, ptr %this, i64 16
  %m_nodes.i.i = getelementptr inbounds i8, ptr %this, i64 24
  %0 = load ptr, ptr %m_nodes.i.i, align 8
  %cmp.i.i.i = icmp eq ptr %0, null
  br i1 %cmp.i.i.i, label %invoke.cont, label %_ZNK6vectorIP4exprLb0EjE4sizeEv.exit.i.i

_ZNK6vectorIP4exprLb0EjE4sizeEv.exit.i.i:         ; preds = %entry
  %arrayidx.i.i.i = getelementptr inbounds i8, ptr %0, i64 -4
  %1 = load i32, ptr %arrayidx.i.i.i, align 4
  %2 = zext i32 %1 to i64
  %add.ptr.i.i = getelementptr inbounds ptr, ptr %0, i64 %2
  %cmp3.i.not.i.i = icmp eq i32 %1, 0
  br i1 %cmp3.i.not.i.i, label %if.then.i.i.i, label %for.body.i.i.i

for.body.i.i.i:                                   ; preds = %_ZNK6vectorIP4exprLb0EjE4sizeEv.exit.i.i, %_ZN15ref_vector_coreI4expr19ref_manager_wrapperIS0_11ast_managerEE7dec_refEPS0_.exit.i.i.i
  %it.04.i.i.i = phi ptr [ %incdec.ptr.i.i.i, %_ZN15ref_vector_coreI4expr19ref_manager_wrapperIS0_11ast_managerEE7dec_refEPS0_.exit.i.i.i ], [ %0, %_ZNK6vectorIP4exprLb0EjE4sizeEv.exit.i.i ]
  %3 = load ptr, ptr %it.04.i.i.i, align 8
  %4 = load ptr, ptr %m_shared.i, align 8
  %tobool.not.i.i.i.i.i.i = icmp eq ptr %3, null
  br i1 %tobool.not.i.i.i.i.i.i, label %_ZN15ref_vector_coreI4expr19ref_manager_wrapperIS0_11ast_managerEE7dec_refEPS0_.exit.i.i.i, label %if.then.i.i.i.i.i.i

if.then.i.i.i.i.i.i:                              ; preds = %for.body.i.i.i
  %m_ref_count.i.i.i.i.i.i.i = getelementptr inbounds i8, ptr %3, i64 8
  %5 = load i32, ptr %m_ref_count.i.i.i.i.i.i.i, align 4
  %dec.i.i.i.i.i.i.i = add i32 %5, -1
  store i32 %dec.i.i.i.i.i.i.i, ptr %m_ref_count.i.i.i.i.i.i.i, align 4
  %cmp.i.i.i.i.i.i = icmp eq i32 %dec.i.i.i.i.i.i.i, 0
  br i1 %cmp.i.i.i.i.i.i, label %if.then2.i.i.i.i.i.i, label %_ZN15ref_vector_coreI4expr19ref_manager_wrapperIS0_11ast_managerEE7dec_refEPS0_.exit.i.i.i

if.then2.i.i.i.i.i.i:                             ; preds = %if.then.i.i.i.i.i.i
  invoke void @_ZN11ast_manager11delete_nodeEP3ast(ptr noundef nonnull align 8 dereferenceable(976) %4, ptr noundef nonnull %3)
          to label %_ZN15ref_vector_coreI4expr19ref_manager_wrapperIS0_11ast_managerEE7dec_refEPS0_.exit.i.i.i unwind label %lpad.loopexit

_ZN15ref_vector_coreI4expr19ref_manager_wrapperIS0_11ast_managerEE7dec_refEPS0_.exit.i.i.i: ; preds = %if.then2.i.i.i.i.i.i, %if.then.i.i.i.i.i.i, %for.body.i.i.i
  %incdec.ptr.i.i.i = getelementptr inbounds i8, ptr %it.04.i.i.i, i64 8
  %cmp.i1.i.i = icmp ult ptr %incdec.ptr.i.i.i, %add.ptr.i.i
  br i1 %cmp.i1.i.i, label %for.body.i.i.i, label %_ZN15ref_vector_coreI4expr19ref_manager_wrapperIS0_11ast_managerEE13dec_range_refEPKPS0_S7_.exit.i.i, !llvm.loop !4

_ZN15ref_vector_coreI4expr19ref_manager_wrapperIS0_11ast_managerEE13dec_range_refEPKPS0_S7_.exit.i.i: ; preds = %_ZN15ref_vector_coreI4expr19ref_manager_wrapperIS0_11ast_managerEE7dec_refEPS0_.exit.i.i.i
  %.pre.i.i = load ptr, ptr %m_nodes.i.i, align 8
  %tobool.not.i.i.i = icmp eq ptr %.pre.i.i, null
  br i1 %tobool.not.i.i.i, label %invoke.cont, label %if.then.i.i.i

if.then.i.i.i:                                    ; preds = %_ZN15ref_vector_coreI4expr19ref_manager_wrapperIS0_11ast_managerEE13dec_range_refEPKPS0_S7_.exit.i.i, %_ZNK6vectorIP4exprLb0EjE4sizeEv.exit.i.i
  %6 = phi ptr [ %.pre.i.i, %_ZN15ref_vector_coreI4expr19ref_manager_wrapperIS0_11ast_managerEE13dec_range_refEPKPS0_S7_.exit.i.i ], [ %0, %_ZNK6vectorIP4exprLb0EjE4sizeEv.exit.i.i ]
  %arrayidx.i2.i.i = getelementptr inbounds i8, ptr %6, i64 -4
  store i32 0, ptr %arrayidx.i2.i.i, align 4
  br label %invoke.cont

invoke.cont:                                      ; preds = %if.then.i.i.i, %_ZN15ref_vector_coreI4expr19ref_manager_wrapperIS0_11ast_managerEE13dec_range_refEPKPS0_S7_.exit.i.i, %entry
  invoke void @_ZN11shared_occsclEP4exprR16shared_occs_mark(ptr noundef nonnull align 8 dereferenceable(40) %this, ptr noundef %t, ptr noundef nonnull align 8 dereferenceable(144) %visited)
          to label %invoke.cont2 unwind label %lpad.loopexit.split-lp

invoke.cont2:                                     ; preds = %invoke.cont
  %7 = load ptr, ptr %visited, align 8
  %8 = load i32, ptr %m_pos.i.i.i, align 8
  %idx.ext.i.i.i = zext i32 %8 to i64
  %add.ptr.i.i.i = getelementptr inbounds ptr, ptr %7, i64 %idx.ext.i.i.i
  %cmp.not4.i.i = icmp eq i32 %8, 0
  br i1 %cmp.not4.i.i, label %invoke.cont.i, label %for.body.i.i

for.body.i.i:                                     ; preds = %invoke.cont2, %for.body.i.i
  %__begin1.05.i.i = phi ptr [ %incdec.ptr.i.i, %for.body.i.i ], [ %7, %invoke.cont2 ]
  %9 = load ptr, ptr %__begin1.05.i.i, align 8
  %m_mark_shared_occs.i.i.i.i = getelementptr inbounds i8, ptr %9, i64 4
  %bf.load.i.i.i.i = load i32, ptr %m_mark_shared_occs.i.i.i.i, align 4
  %bf.clear.i.i.i.i = and i32 %bf.load.i.i.i.i, -262145
  store i32 %bf.clear.i.i.i.i, ptr %m_mark_shared_occs.i.i.i.i, align 4
  %incdec.ptr.i.i = getelementptr inbounds i8, ptr %__begin1.05.i.i, i64 8
  %cmp.not.i.i = icmp eq ptr %incdec.ptr.i.i, %add.ptr.i.i.i
  br i1 %cmp.not.i.i, label %invoke.cont.loopexit.i, label %for.body.i.i

invoke.cont.loopexit.i:                           ; preds = %for.body.i.i
  %.pre.i = load ptr, ptr %visited, align 8
  br label %invoke.cont.i

invoke.cont.i:                                    ; preds = %invoke.cont.loopexit.i, %invoke.cont2
  %10 = phi ptr [ %.pre.i, %invoke.cont.loopexit.i ], [ %7, %invoke.cont2 ]
  store i32 0, ptr %m_pos.i.i.i, align 8
  %cmp.not.i.i.i.i.i = icmp eq ptr %10, %m_initial_buffer.i.i.i
  %cmp.i.i.i.i.i.i1 = icmp eq ptr %10, null
  %or.cond.i.i.i.i.i = or i1 %cmp.not.i.i.i.i.i, %cmp.i.i.i.i.i.i1
  br i1 %or.cond.i.i.i.i.i, label %_ZN16shared_occs_markD2Ev.exit, label %if.end.i.i.i.i.i.i

if.end.i.i.i.i.i.i:                               ; preds = %invoke.cont.i
  invoke void @_ZN6memory10deallocateEPv(ptr noundef nonnull %10)
          to label %_ZN16shared_occs_markD2Ev.exit unwind label %terminate.lpad.i.i.i

terminate.lpad.i.i.i:                             ; preds = %if.end.i.i.i.i.i.i
  %11 = landingpad { ptr, i32 }
          catch ptr null
  %12 = extractvalue { ptr, i32 } %11, 0
  call void @__clang_call_terminate(ptr %12) #13
  unreachable

_ZN16shared_occs_markD2Ev.exit:                   ; preds = %invoke.cont.i, %if.end.i.i.i.i.i.i
  ret void

lpad.loopexit:                                    ; preds = %if.then2.i.i.i.i.i.i
  %lpad.loopexit2 = landingpad { ptr, i32 }
          cleanup
  br label %lpad

lpad.loopexit.split-lp:                           ; preds = %invoke.cont
  %lpad.loopexit.split-lp3 = landingpad { ptr, i32 }
          cleanup
  br label %lpad

lpad:                                             ; preds = %lpad.loopexit.split-lp, %lpad.loopexit
  %lpad.phi = phi { ptr, i32 } [ %lpad.loopexit2, %lpad.loopexit ], [ %lpad.loopexit.split-lp3, %lpad.loopexit.split-lp ]
  call void @_ZN16shared_occs_markD2Ev(ptr noundef nonnull align 8 dereferenceable(144) %visited) #14
  resume { ptr, i32 } %lpad.phi
}